; ModuleID = '37/1931.c'
source_filename = "37/1931.c"
target datalayout = "e-m:e-p270:32:32-p271:32:32-p272:64:64-i64:64-f80:128-n8:16:32:64-S128"
target triple = "x86_64-pc-linux-gnu"

@.str = private unnamed_addr constant [3 x i8] c"%d\00", align 1
@.str.1 = private unnamed_addr constant [3 x i8] c"%s\00", align 1
@.str.2 = private unnamed_addr constant [4 x i8] c"%c\0A\00", align 1
@.str.3 = private unnamed_addr constant [4 x i8] c"no\0A\00", align 1

; Function Attrs: noinline nounwind uwtable
define dso_local i32 @main() #0 {
  %1 = alloca i32, align 4
  %2 = alloca i32, align 4
  %3 = alloca i32, align 4
  %4 = alloca [100000 x i8], align 16
  %5 = alloca i32, align 4
  %6 = alloca i32, align 4
  %7 = alloca i32, align 4
  %8 = alloca i32, align 4
  %9 = alloca i32, align 4
  store i32 0, i32* %1, align 4
  %10 = call i32 (i8*, ...) @__isoc99_scanf(i8* getelementptr inbounds ([3 x i8], [3 x i8]* @.str, i64 0, i64 0), i32* %2)
  store i32 1, i32* %3, align 4
  br label %11

11:                                               ; preds = %73, %0
  %12 = load i32, i32* %3, align 4
  %13 = load i32, i32* %2, align 4
  %14 = icmp sle i32 %12, %13
  br i1 %14, label %15, label %76

15:                                               ; preds = %11
  %16 = call i32 (i8*, ...) @__isoc99_scanf(i8* getelementptr inbounds ([3 x i8], [3 x i8]* @.str.1, i64 0, i64 0), [100000 x i8]* %4)
  %17 = getelementptr inbounds [100000 x i8], [100000 x i8]* %4, i64 0, i64 0
  %18 = call i64 @strlen(i8* %17) #3
  %19 = trunc i64 %18 to i32
  store i32 %19, i32* %5, align 4
  %20 = load i32, i32* %5, align 4
  store i32 %20, i32* %6, align 4
  store i32 0, i32* %7, align 4
  store i32 0, i32* %8, align 4
  br label %21

21:                                               ; preds = %64, %15
  %22 = load i32, i32* %8, align 4
  %23 = load i32, i32* %5, align 4
  %24 = sub nsw i32 %23, 1
  %25 = icmp sle i32 %22, %24
  br i1 %25, label %26, label %67

26:                                               ; preds = %21
  store i32 0, i32* %9, align 4
  br label %27

27:                                               ; preds = %48, %26
  %28 = load i32, i32* %9, align 4
  %29 = load i32, i32* %5, align 4
  %30 = sub nsw i32 %29, 1
  %31 = icmp sle i32 %28, %30
  br i1 %31, label %32, label %51

32:                                               ; preds = %27
  %33 = load i32, i32* %8, align 4
  %34 = sext i32 %33 to i64
  %35 = getelementptr inbounds [100000 x i8], [100000 x i8]* %4, i64 0, i64 %34
  %36 = load i8, i8* %35, align 1
  %37 = sext i8 %36 to i32
  %38 = load i32, i32* %9, align 4
  %39 = sext i32 %38 to i64
  %40 = getelementptr inbounds [100000 x i8], [100000 x i8]* %4, i64 0, i64 %39
  %41 = load i8, i8* %40, align 1
  %42 = sext i8 %41 to i32
  %43 = icmp eq i32 %37, %42
  br i1 %43, label %44, label %47

44:                                               ; preds = %32
  %45 = load i32, i32* %7, align 4
  %46 = add nsw i32 %45, 1
  store i32 %46, i32* %7, align 4
  br label %47

47:                                               ; preds = %44, %32
  br label %48

48:                                               ; preds = %47
  %49 = load i32, i32* %9, align 4
  %50 = add nsw i32 %49, 1
  store i32 %50, i32* %9, align 4
  br label %27

51:                                               ; preds = %27
  %52 = load i32, i32* %7, align 4
  %53 = icmp eq i32 %52, 1
  br i1 %53, label %54, label %61

54:                                               ; preds = %51
  %55 = load i32, i32* %8, align 4
  %56 = sext i32 %55 to i64
  %57 = getelementptr inbounds [100000 x i8], [100000 x i8]* %4, i64 0, i64 %56
  %58 = load i8, i8* %57, align 1
  %59 = sext i8 %58 to i32
  %60 = call i32 (i8*, ...) @printf(i8* getelementptr inbounds ([4 x i8], [4 x i8]* @.str.2, i64 0, i64 0), i32 %59)
  br label %67

61:                                               ; preds = %51
  store i32 0, i32* %7, align 4
  %62 = load i32, i32* %6, align 4
  %63 = add nsw i32 %62, -1
  store i32 %63, i32* %6, align 4
  br label %64

64:                                               ; preds = %61
  %65 = load i32, i32* %8, align 4
  %66 = add nsw i32 %65, 1
  store i32 %66, i32* %8, align 4
  br label %21

67:                                               ; preds = %54, %21
  %68 = load i32, i32* %6, align 4
  %69 = icmp eq i32 %68, 0
  br i1 %69, label %70, label %72

70:                                               ; preds = %67
  %71 = call i32 (i8*, ...) @printf(i8* getelementptr inbounds ([4 x i8], [4 x i8]* @.str.3, i64 0, i64 0))
  br label %72

72:                                               ; preds = %70, %67
  br label %73

73:                                               ; preds = %72
  %74 = load i32, i32* %3, align 4
  %75 = add nsw i32 %74, 1
  store i32 %75, i32* %3, align 4
  br label %11

76:                                               ; preds = %11
  %77 = load i32, i32* %1, align 4
  ret i32 %77
}

declare dso_local i32 @__isoc99_scanf(i8*, ...) #1

; Function Attrs: nounwind readonly
declare dso_local i64 @strlen(i8*) #2

declare dso_local i32 @printf(i8*, ...) #1


!llvm.module.flags = !{!0}
!llvm.ident = !{!1}

!0 = !{i32 1, !"wchar_size", i32 4}
!1 = !{!"clang version 10.0.0-4ubuntu1 "}
